target datalayout = "e-m:e-p270:32:32-p271:32:32-p272:64:64-i64:64-i128:128-f80:128-n8:16:32:64-S128"
target triple = "x86_64-pc-linux-gnu"

%"class.google::protobuf::strings::ByteSink" = type { ptr }
%"class.google::protobuf::strings::GrowingArrayByteSink" = type { %"class.google::protobuf::strings::ByteSink", i64, ptr, i64 }

; Function Attrs: mustprogress nounwind uwtable
define linkonce_odr hidden void @_ZN6google8protobuf7strings8ByteSinkD2Ev(ptr noundef nonnull align 8 dereferenceable(8) %0) unnamed_addr #6 comdat align 2 {
  %2 = alloca ptr, align 8
  store ptr %0, ptr %2, align 8, !tbaa !8
  ret void
}

; Function Attrs: mustprogress nounwind uwtable
define linkonce_odr hidden void @_ZN6google8protobuf7strings8ByteSinkC2Ev(ptr noundef nonnull align 8 dereferenceable(8) %0) unnamed_addr #6 comdat align 2 {
  %2 = alloca ptr, align 8
  store ptr %0, ptr %2, align 8, !tbaa !8
  %3 = load ptr, ptr %2, align 8
  store ptr getelementptr inbounds inrange(-16, 32) ({ [6 x ptr] }, ptr @_ZTVN6google8protobuf7strings8ByteSinkE, i32 0, i32 0, i32 2), ptr %3, align 8, !tbaa !12
  ret void
}

; Function Attrs: mustprogress uwtable
define hidden void @_ZN6google8protobuf7strings20GrowingArrayByteSinkC2Em(ptr noundef nonnull align 8 dereferenceable(32) %0, i64 noundef %1) unnamed_addr #4 align 2 personality ptr @__gxx_personality_v0 {
  %3 = alloca ptr, align 8
  %4 = alloca i64, align 8
  %5 = alloca ptr, align 8
  %6 = alloca i32, align 4
  store ptr %0, ptr %3, align 8, !tbaa !40
  store i64 %1, ptr %4, align 8, !tbaa !10
  %7 = load ptr, ptr %3, align 8
  call void @_ZN6google8protobuf7strings8ByteSinkC2Ev(ptr noundef nonnull align 8 dereferenceable(8) %7)
  store ptr getelementptr inbounds inrange(-16, 32) ({ [6 x ptr] }, ptr @_ZTVN6google8protobuf7strings20GrowingArrayByteSinkE, i32 0, i32 0, i32 2), ptr %7, align 8, !tbaa !12
  %8 = getelementptr inbounds nuw %"class.google::protobuf::strings::GrowingArrayByteSink", ptr %7, i32 0, i32 1
  %9 = load i64, ptr %4, align 8, !tbaa !10
  store i64 %9, ptr %8, align 8, !tbaa !42
  %10 = getelementptr inbounds nuw %"class.google::protobuf::strings::GrowingArrayByteSink", ptr %7, i32 0, i32 2
  %11 = load i64, ptr %4, align 8, !tbaa !10
  %12 = invoke noalias noundef nonnull ptr @_Znam(i64 noundef %11) #14
          to label %13 unwind label %15

13:                                               ; preds = %2
  store ptr %12, ptr %10, align 8, !tbaa !44
  %14 = getelementptr inbounds nuw %"class.google::protobuf::strings::GrowingArrayByteSink", ptr %7, i32 0, i32 3
  store i64 0, ptr %14, align 8, !tbaa !45
  ret void

15:                                               ; preds = %2
  %16 = landingpad { ptr, i32 }
          cleanup
  %17 = extractvalue { ptr, i32 } %16, 0
  store ptr %17, ptr %5, align 8
  %18 = extractvalue { ptr, i32 } %16, 1
  store i32 %18, ptr %6, align 4
  call void @_ZN6google8protobuf7strings8ByteSinkD2Ev(ptr noundef nonnull align 8 dereferenceable(8) %7) #3
  br label %19

19:                                               ; preds = %15
  %20 = load ptr, ptr %5, align 8
  %21 = load i32, ptr %6, align 4
  %22 = insertvalue { ptr, i32 } poison, ptr %20, 0
  %23 = insertvalue { ptr, i32 } %22, i32 %21, 1
  resume { ptr, i32 } %23
}